(dp0
Vdefault
p1
V= \u73b0\u8c61 =\u000a\u000a= \u601d\u8003 =\u000a\u000a= \u5efa\u8bae =
p2
sVtask
p3
V= \u95ee\u9898\u73b0\u8c61 =\u000a\u000a= \u80cc\u666f\u5206\u6790 =\u000a\u000a= \u5b9e\u65bd\u5efa\u8bae =
p4
sVdefect
p5
V= \u7f3a\u9677\u63cf\u8ff0 =\u000a\u000a= \u7f3a\u9677\u5206\u6790 =\u000a\u000a= \u4fee\u8ba2\u5efa\u8bae =
p6
sVenhancement
p7
V= \u4e0d\u5982\u610f =\u000a\u000a= \u5206\u6790 =\u000a\u000a= \u589e\u8fdb\u5efa\u8bae =
p8
s.